; Function Attrs: mustprogress uwtable
define noundef double @_ZNK6colvar12distance_vec5dist2ERK11colvarvalueS3_(ptr noundef nonnull readonly align 8 captures(none) dereferenceable(1648) %0, ptr noundef nonnull align 8 dereferenceable(168) %1, ptr noundef nonnull align 8 dereferenceable(168) %2) unnamed_addr #2 align 2 {
  %4 = alloca %"class.colvarmodule::rvector", align 8
  %5 = getelementptr inbounds nuw i8, ptr %0, i64 368
  %6 = load ptr, ptr %5, align 8, !tbaa !88
  %7 = getelementptr inbounds nuw i8, ptr %6, i64 417
  %8 = load i8, ptr %7, align 1, !tbaa !89, !range !91, !noundef !92
  %9 = trunc nuw i8 %8 to i1
  %10 = getelementptr inbounds nuw i8, ptr %1, i64 16
  br i1 %9, label %11, label %21

11:                                               ; preds = %3
  call void @llvm.lifetime.start.p0(i64 24, ptr nonnull %4) #26
  %12 = getelementptr inbounds nuw i8, ptr %2, i64 16
  call void @_ZN12colvarmodule17position_distanceERKNS_7rvectorES2_(ptr dead_on_unwind nonnull writable sret(%"class.colvarmodule::rvector") align 8 %4, ptr noundef nonnull align 8 dereferenceable(24) %10, ptr noundef nonnull align 8 dereferenceable(24) %12)
  %13 = load double, ptr %4, align 8, !tbaa !95
  %14 = getelementptr inbounds nuw i8, ptr %4, i64 8
  %15 = load double, ptr %14, align 8, !tbaa !96
  %16 = fmul double %15, %15
  %17 = call double @llvm.fmuladd.f64(double %13, double %13, double %16)
  %18 = getelementptr inbounds nuw i8, ptr %4, i64 16
  %19 = load double, ptr %18, align 8, !tbaa !97
  %20 = call noundef double @llvm.fmuladd.f64(double %19, double %19, double %17)
  call void @llvm.lifetime.end.p0(i64 24, ptr nonnull %4) #26
  br label %39

21:                                               ; preds = %3
  %22 = getelementptr inbounds nuw i8, ptr %2, i64 16
  %23 = load double, ptr %22, align 8, !tbaa !95, !noalias !134
  %24 = load double, ptr %10, align 8, !tbaa !95, !noalias !134
  %25 = fsub double %23, %24
  %26 = getelementptr inbounds nuw i8, ptr %2, i64 24
  %27 = load double, ptr %26, align 8, !tbaa !96, !noalias !134
  %28 = getelementptr inbounds nuw i8, ptr %1, i64 24
  %29 = load double, ptr %28, align 8, !tbaa !96, !noalias !134
  %30 = fsub double %27, %29
  %31 = getelementptr inbounds nuw i8, ptr %2, i64 32
  %32 = load double, ptr %31, align 8, !tbaa !97, !noalias !134
  %33 = getelementptr inbounds nuw i8, ptr %1, i64 32
  %34 = load double, ptr %33, align 8, !tbaa !97, !noalias !134
  %35 = fsub double %32, %34
  %36 = fmul double %30, %30
  %37 = tail call double @llvm.fmuladd.f64(double %25, double %25, double %36)
  %38 = tail call noundef double @llvm.fmuladd.f64(double %35, double %35, double %37)
  br label %39

39:                                               ; preds = %21, %11
  %.0 = phi double [ %20, %11 ], [ %38, %21 ]
  ret double %.0
}